; Function Attrs: nounwind uwtable
define ptr @glfwGetRequiredInstanceExtensions(ptr noundef writeonly captures(none) initializes((0, 4)) %0) local_unnamed_addr #0 {
  store i32 0, ptr %0, align 4, !tbaa !96
  %2 = load i32, ptr @_glfw, align 8, !tbaa !105
  %.not = icmp eq i32 %2, 0
  br i1 %.not, label %3, label %4

3:                                                ; preds = %1
  tail call void (i32, ptr, ...) @_glfwInputError(i32 noundef 65537, ptr noundef null) #5
  br label %8

4:                                                ; preds = %1
  %5 = tail call i32 @_glfwInitVulkan(i32 noundef 2)
  %.not3 = icmp eq i32 %5, 0
  %6 = load ptr, ptr getelementptr inbounds nuw (i8, ptr @_glfw, i64 133816), align 8
  %.not4 = icmp eq ptr %6, null
  %or.cond = select i1 %.not3, i1 true, i1 %.not4
  br i1 %or.cond, label %8, label %7

7:                                                ; preds = %4
  store i32 2, ptr %0, align 4, !tbaa !96
  br label %8

8:                                                ; preds = %4, %7, %3
  %.0 = phi ptr [ getelementptr inbounds nuw (i8, ptr @_glfw, i64 133816), %7 ], [ null, %3 ], [ null, %4 ]
  ret ptr %.0
}